target datalayout = "e-m:e-p270:32:32-p271:32:32-p272:64:64-i64:64-i128:128-f80:128-n8:16:32:64-S128"
target triple = "x86_64-pc-linux-gnu"

; Function Attrs: nounwind uwtable
define internal void @dc_4x4_c(ptr noundef %0, i64 noundef %1, ptr noundef %2, ptr noundef %3) #1 {
  %5 = alloca ptr, align 8
  %6 = alloca i64, align 8
  %7 = alloca ptr, align 8
  %8 = alloca ptr, align 8
  %9 = alloca ptr, align 8
  %10 = alloca ptr, align 8
  %11 = alloca ptr, align 8
  %12 = alloca i32, align 4
  store ptr %0, ptr %5, align 8, !tbaa !10
  store i64 %1, ptr %6, align 8, !tbaa !12
  store ptr %2, ptr %7, align 8, !tbaa !10
  store ptr %3, ptr %8, align 8, !tbaa !10
  call void @llvm.lifetime.start.p0(i64 8, ptr %9) #10
  %13 = load ptr, ptr %5, align 8, !tbaa !10
  store ptr %13, ptr %9, align 8, !tbaa !10
  call void @llvm.lifetime.start.p0(i64 8, ptr %10) #10
  %14 = load ptr, ptr %7, align 8, !tbaa !10
  store ptr %14, ptr %10, align 8, !tbaa !10
  call void @llvm.lifetime.start.p0(i64 8, ptr %11) #10
  %15 = load ptr, ptr %8, align 8, !tbaa !10
  store ptr %15, ptr %11, align 8, !tbaa !10
  call void @llvm.lifetime.start.p0(i64 4, ptr %12) #10
  %16 = load ptr, ptr %10, align 8, !tbaa !10
  %17 = getelementptr inbounds i8, ptr %16, i64 0
  %18 = load i8, ptr %17, align 1, !tbaa !14
  %19 = zext i8 %18 to i32
  %20 = load ptr, ptr %10, align 8, !tbaa !10
  %21 = getelementptr inbounds i8, ptr %20, i64 1
  %22 = load i8, ptr %21, align 1, !tbaa !14
  %23 = zext i8 %22 to i32
  %24 = add nsw i32 %19, %23
  %25 = load ptr, ptr %10, align 8, !tbaa !10
  %26 = getelementptr inbounds i8, ptr %25, i64 2
  %27 = load i8, ptr %26, align 1, !tbaa !14
  %28 = zext i8 %27 to i32
  %29 = add nsw i32 %24, %28
  %30 = load ptr, ptr %10, align 8, !tbaa !10
  %31 = getelementptr inbounds i8, ptr %30, i64 3
  %32 = load i8, ptr %31, align 1, !tbaa !14
  %33 = zext i8 %32 to i32
  %34 = add nsw i32 %29, %33
  %35 = load ptr, ptr %11, align 8, !tbaa !10
  %36 = getelementptr inbounds i8, ptr %35, i64 0
  %37 = load i8, ptr %36, align 1, !tbaa !14
  %38 = zext i8 %37 to i32
  %39 = add nsw i32 %34, %38
  %40 = load ptr, ptr %11, align 8, !tbaa !10
  %41 = getelementptr inbounds i8, ptr %40, i64 1
  %42 = load i8, ptr %41, align 1, !tbaa !14
  %43 = zext i8 %42 to i32
  %44 = add nsw i32 %39, %43
  %45 = load ptr, ptr %11, align 8, !tbaa !10
  %46 = getelementptr inbounds i8, ptr %45, i64 2
  %47 = load i8, ptr %46, align 1, !tbaa !14
  %48 = zext i8 %47 to i32
  %49 = add nsw i32 %44, %48
  %50 = load ptr, ptr %11, align 8, !tbaa !10
  %51 = getelementptr inbounds i8, ptr %50, i64 3
  %52 = load i8, ptr %51, align 1, !tbaa !14
  %53 = zext i8 %52 to i32
  %54 = add nsw i32 %49, %53
  %55 = add nsw i32 %54, 4
  %56 = ashr i32 %55, 3
  %57 = mul i32 %56, 16843009
  store i32 %57, ptr %12, align 4, !tbaa !15
  %58 = load i64, ptr %6, align 8, !tbaa !12
  %59 = udiv i64 %58, 1
  store i64 %59, ptr %6, align 8, !tbaa !12
  %60 = load i32, ptr %12, align 4, !tbaa !15
  %61 = load ptr, ptr %9, align 8, !tbaa !10
  %62 = load i64, ptr %6, align 8, !tbaa !12
  %63 = mul nsw i64 %62, 0
  %64 = getelementptr inbounds i8, ptr %61, i64 %63
  store i32 %60, ptr %64, align 4, !tbaa !14
  %65 = load i32, ptr %12, align 4, !tbaa !15
  %66 = load ptr, ptr %9, align 8, !tbaa !10
  %67 = load i64, ptr %6, align 8, !tbaa !12
  %68 = mul nsw i64 %67, 1
  %69 = getelementptr inbounds i8, ptr %66, i64 %68
  store i32 %65, ptr %69, align 4, !tbaa !14
  %70 = load i32, ptr %12, align 4, !tbaa !15
  %71 = load ptr, ptr %9, align 8, !tbaa !10
  %72 = load i64, ptr %6, align 8, !tbaa !12
  %73 = mul nsw i64 %72, 2
  %74 = getelementptr inbounds i8, ptr %71, i64 %73
  store i32 %70, ptr %74, align 4, !tbaa !14
  %75 = load i32, ptr %12, align 4, !tbaa !15
  %76 = load ptr, ptr %9, align 8, !tbaa !10
  %77 = load i64, ptr %6, align 8, !tbaa !12
  %78 = mul nsw i64 %77, 3
  %79 = getelementptr inbounds i8, ptr %76, i64 %78
  store i32 %75, ptr %79, align 4, !tbaa !14
  call void @llvm.lifetime.end.p0(i64 4, ptr %12) #10
  call void @llvm.lifetime.end.p0(i64 8, ptr %11) #10
  call void @llvm.lifetime.end.p0(i64 8, ptr %10) #10
  call void @llvm.lifetime.end.p0(i64 8, ptr %9) #10
  ret void
}