; Function Attrs: mustprogress nofree norecurse nosync nounwind willreturn memory(argmem: readwrite) uwtable
define internal void @dc_4x4_c(ptr noundef writeonly captures(none) initializes((0, 4)) %0, i64 noundef %1, ptr noundef readonly captures(none) %2, ptr noundef readonly captures(none) %3) #1 {
  %5 = load i8, ptr %2, align 1, !tbaa !8
  %6 = zext i8 %5 to i32
  %7 = getelementptr inbounds nuw i8, ptr %2, i64 1
  %8 = load i8, ptr %7, align 1, !tbaa !8
  %9 = zext i8 %8 to i32
  %10 = getelementptr inbounds nuw i8, ptr %2, i64 2
  %11 = load i8, ptr %10, align 1, !tbaa !8
  %12 = zext i8 %11 to i32
  %13 = getelementptr inbounds nuw i8, ptr %2, i64 3
  %14 = load i8, ptr %13, align 1, !tbaa !8
  %15 = zext i8 %14 to i32
  %16 = load i8, ptr %3, align 1, !tbaa !8
  %17 = zext i8 %16 to i32
  %18 = getelementptr inbounds nuw i8, ptr %3, i64 1
  %19 = load i8, ptr %18, align 1, !tbaa !8
  %20 = zext i8 %19 to i32
  %21 = getelementptr inbounds nuw i8, ptr %3, i64 2
  %22 = load i8, ptr %21, align 1, !tbaa !8
  %23 = zext i8 %22 to i32
  %24 = getelementptr inbounds nuw i8, ptr %3, i64 3
  %25 = load i8, ptr %24, align 1, !tbaa !8
  %26 = zext i8 %25 to i32
  %27 = add nuw nsw i32 %6, 4
  %28 = add nuw nsw i32 %27, %9
  %29 = add nuw nsw i32 %28, %12
  %30 = add nuw nsw i32 %29, %15
  %31 = add nuw nsw i32 %30, %17
  %32 = add nuw nsw i32 %31, %20
  %33 = add nuw nsw i32 %32, %23
  %34 = add nuw nsw i32 %33, %26
  %35 = lshr i32 %34, 3
  %36 = mul nuw i32 %35, 16843009
  store i32 %36, ptr %0, align 4, !tbaa !8
  %37 = getelementptr inbounds i8, ptr %0, i64 %1
  store i32 %36, ptr %37, align 4, !tbaa !8
  %38 = shl nsw i64 %1, 1
  %39 = getelementptr inbounds i8, ptr %0, i64 %38
  store i32 %36, ptr %39, align 4, !tbaa !8
  %40 = mul nsw i64 %1, 3
  %41 = getelementptr inbounds i8, ptr %0, i64 %40
  store i32 %36, ptr %41, align 4, !tbaa !8
  ret void
}